target datalayout = "e-m:e-p270:32:32-p271:32:32-p272:64:64-i64:64-i128:128-f80:128-n8:16:32:64-S128"
target triple = "x86_64-pc-linux-gnu"

%struct.lua_State = type { i8, i8, i8, i8, i8, i8, i8, ptr, ptr, ptr, ptr, ptr, ptr, ptr, ptr, i32, i32, i16, i16, i32, ptr, ptr, ptr, ptr, ptr }
%struct.global_State = type { %struct.stringtable, ptr, ptr, i8, i8, ptr, ptr, ptr, i64, i64, i32, i32, i32, [40 x ptr], [40 x ptr], ptr, ptr, ptr, [256 x i64], ptr, %struct.UpVal, [11 x ptr], [11 x ptr], [21 x ptr], %struct.lua_TValue, %struct.lua_TValue, i32, ptr, i64, [4 x i64], %struct.lua_Callbacks, %struct.lua_ExecutionCallbacks, [128 x ptr], [128 x ptr], [128 x ptr], %struct.GCStats }
%struct.stringtable = type { ptr, i32, i32 }
%struct.UpVal = type { i8, i8, i8, i8, ptr, %union.anon }
%union.anon = type { %struct.anon }
%struct.anon = type { ptr, ptr, ptr }
%struct.lua_TValue = type { %union.Value, [1 x i32], i32 }
%union.Value = type { ptr }
%struct.lua_Callbacks = type { ptr, ptr, ptr, ptr, ptr, ptr, ptr, ptr, ptr }
%struct.lua_ExecutionCallbacks = type { ptr, ptr, ptr, ptr, ptr, ptr, ptr }
%struct.GCStats = type { [32 x i32], i32, i32, i64, i64, i64, double, double, double }
%struct.TString = type { i8, i8, i8, i16, ptr, i32, i32, [1 x i8] }

; Function Attrs: mustprogress nounwind uwtable
define internal noundef zeroext i1 @_ZL9unlinkstrP9lua_StateP7TString(ptr noundef %0, ptr noundef %1) #0 {
  %3 = alloca i1, align 1
  %4 = alloca ptr, align 8
  %5 = alloca ptr, align 8
  %6 = alloca ptr, align 8
  %7 = alloca ptr, align 8
  %8 = alloca ptr, align 8
  store ptr %0, ptr %4, align 8
  store ptr %1, ptr %5, align 8
  %9 = load ptr, ptr %4, align 8
  %10 = getelementptr inbounds %struct.lua_State, ptr %9, i32 0, i32 9
  %11 = load ptr, ptr %10, align 8
  store ptr %11, ptr %6, align 8
  %12 = load ptr, ptr %6, align 8
  %13 = getelementptr inbounds %struct.global_State, ptr %12, i32 0, i32 0
  %14 = getelementptr inbounds %struct.stringtable, ptr %13, i32 0, i32 0
  %15 = load ptr, ptr %14, align 8
  %16 = load ptr, ptr %5, align 8
  %17 = getelementptr inbounds %struct.TString, ptr %16, i32 0, i32 5
  %18 = load i32, ptr %17, align 8
  %19 = load ptr, ptr %6, align 8
  %20 = getelementptr inbounds %struct.global_State, ptr %19, i32 0, i32 0
  %21 = getelementptr inbounds %struct.stringtable, ptr %20, i32 0, i32 2
  %22 = load i32, ptr %21, align 4
  %23 = sub nsw i32 %22, 1
  %24 = and i32 %18, %23
  %25 = sext i32 %24 to i64
  %26 = getelementptr inbounds ptr, ptr %15, i64 %25
  store ptr %26, ptr %7, align 8
  br label %27

27:                                               ; preds = %44, %2
  %28 = load ptr, ptr %7, align 8
  %29 = load ptr, ptr %28, align 8
  store ptr %29, ptr %8, align 8
  %30 = load ptr, ptr %8, align 8
  %31 = icmp ne ptr %30, null
  br i1 %31, label %32, label %45

32:                                               ; preds = %27
  %33 = load ptr, ptr %8, align 8
  %34 = load ptr, ptr %5, align 8
  %35 = icmp eq ptr %33, %34
  br i1 %35, label %36, label %41

36:                                               ; preds = %32
  %37 = load ptr, ptr %8, align 8
  %38 = getelementptr inbounds %struct.TString, ptr %37, i32 0, i32 4
  %39 = load ptr, ptr %38, align 8
  %40 = load ptr, ptr %7, align 8
  store ptr %39, ptr %40, align 8
  store i1 true, ptr %3, align 1
  br label %46

41:                                               ; preds = %32
  %42 = load ptr, ptr %8, align 8
  %43 = getelementptr inbounds %struct.TString, ptr %42, i32 0, i32 4
  store ptr %43, ptr %7, align 8
  br label %44

44:                                               ; preds = %41
  br label %27, !llvm.loop !13

45:                                               ; preds = %27
  store i1 false, ptr %3, align 1
  br label %46

46:                                               ; preds = %45, %36
  %47 = load i1, ptr %3, align 1
  ret i1 %47
}

; Function Attrs: mustprogress uwtable
define hidden void @_Z9luaS_freeP9lua_StateP7TStringP8lua_Page(ptr noundef %0, ptr noundef %1, ptr noundef %2) #2 {
  %4 = alloca ptr, align 8
  %5 = alloca ptr, align 8
  %6 = alloca ptr, align 8
  store ptr %0, ptr %4, align 8
  store ptr %1, ptr %5, align 8
  store ptr %2, ptr %6, align 8
  %7 = load ptr, ptr %4, align 8
  %8 = load ptr, ptr %5, align 8
  %9 = call noundef zeroext i1 @_ZL9unlinkstrP9lua_StateP7TString(ptr noundef %7, ptr noundef %8)
  br i1 %9, label %10, label %18

10:                                               ; preds = %3
  %11 = load ptr, ptr %4, align 8
  %12 = getelementptr inbounds %struct.lua_State, ptr %11, i32 0, i32 9
  %13 = load ptr, ptr %12, align 8
  %14 = getelementptr inbounds %struct.global_State, ptr %13, i32 0, i32 0
  %15 = getelementptr inbounds %struct.stringtable, ptr %14, i32 0, i32 1
  %16 = load i32, ptr %15, align 8
  %17 = add i32 %16, -1
  store i32 %17, ptr %15, align 8
  br label %19

18:                                               ; preds = %3
  br label %19

19:                                               ; preds = %18, %10
  %20 = load ptr, ptr %4, align 8
  %21 = load ptr, ptr %5, align 8
  %22 = getelementptr inbounds %struct.TString, ptr %21, i64 0
  %23 = load ptr, ptr %5, align 8
  %24 = getelementptr inbounds %struct.TString, ptr %23, i32 0, i32 6
  %25 = load i32, ptr %24, align 4
  %26 = zext i32 %25 to i64
  %27 = add i64 24, %26
  %28 = add i64 %27, 1
  %29 = load ptr, ptr %5, align 8
  %30 = getelementptr inbounds %struct.TString, ptr %29, i32 0, i32 2
  %31 = load i8, ptr %30, align 2
  %32 = load ptr, ptr %6, align 8
  call void @_Z13luaM_freegco_P9lua_StateP8GCObjectmhP8lua_Page(ptr noundef %20, ptr noundef %22, i64 noundef %28, i8 noundef zeroext %31, ptr noundef %32)
  ret void
}