; Function Attrs: mustprogress uwtable
define hidden void @_Z9luaS_freeP9lua_StateP7TStringP8lua_Page(ptr noundef %0, ptr noundef %1, ptr noundef %2) local_unnamed_addr #2 {
  %4 = getelementptr i8, ptr %0, i64 24
  %.val = load ptr, ptr %4, align 8
  %.val.val = load ptr, ptr %.val, align 8
  %5 = getelementptr i8, ptr %.val, i64 12
  %.val.val8 = load i32, ptr %5, align 4
  %6 = getelementptr inbounds i8, ptr %1, i64 16
  %7 = load i32, ptr %6, align 8
  %8 = add nsw i32 %.val.val8, -1
  %9 = and i32 %7, %8
  %10 = sext i32 %9 to i64
  %11 = getelementptr inbounds ptr, ptr %.val.val, i64 %10
  %12 = load ptr, ptr %11, align 8
  %.not5.not.i = icmp eq ptr %12, null
  br i1 %.not5.not.i, label %_ZL9unlinkstrP9lua_StateP7TString.exit.thread, label %.lr.ph.i.preheader

.lr.ph.i.preheader:                               ; preds = %3
  %13 = icmp eq ptr %12, %1
  br i1 %13, label %.lr.ph.i._crit_edge, label %.lr.ph

.lr.ph.i:                                         ; preds = %.lr.ph
  %14 = icmp eq ptr %17, %1
  br i1 %14, label %.lr.ph.i._crit_edge.loopexit, label %.lr.ph, !llvm.loop !12

.lr.ph:                                           ; preds = %.lr.ph.i.preheader, %.lr.ph.i
  %15 = phi ptr [ %17, %.lr.ph.i ], [ %12, %.lr.ph.i.preheader ]
  %16 = getelementptr inbounds i8, ptr %15, i64 8
  %17 = load ptr, ptr %16, align 8
  %.not.not.i = icmp eq ptr %17, null
  br i1 %.not.not.i, label %_ZL9unlinkstrP9lua_StateP7TString.exit.thread, label %.lr.ph.i, !llvm.loop !12

.lr.ph.i._crit_edge.loopexit:                     ; preds = %.lr.ph.i
  %18 = getelementptr inbounds i8, ptr %15, i64 8
  br label %.lr.ph.i._crit_edge

.lr.ph.i._crit_edge:                              ; preds = %.lr.ph.i._crit_edge.loopexit, %.lr.ph.i.preheader
  %.lcssa = phi ptr [ %12, %.lr.ph.i.preheader ], [ %17, %.lr.ph.i._crit_edge.loopexit ]
  %.0126.i.lcssa = phi ptr [ %11, %.lr.ph.i.preheader ], [ %18, %.lr.ph.i._crit_edge.loopexit ]
  %19 = getelementptr inbounds i8, ptr %.lcssa, i64 8
  %20 = load ptr, ptr %19, align 8
  store ptr %20, ptr %.0126.i.lcssa, align 8
  %21 = load ptr, ptr %4, align 8
  %22 = getelementptr inbounds i8, ptr %21, i64 8
  %23 = load i32, ptr %22, align 8
  %24 = add i32 %23, -1
  store i32 %24, ptr %22, align 8
  br label %_ZL9unlinkstrP9lua_StateP7TString.exit.thread

_ZL9unlinkstrP9lua_StateP7TString.exit.thread:    ; preds = %.lr.ph, %3, %.lr.ph.i._crit_edge
  %25 = getelementptr inbounds i8, ptr %1, i64 20
  %26 = load i32, ptr %25, align 4
  %27 = zext i32 %26 to i64
  %28 = add nuw nsw i64 %27, 25
  %29 = getelementptr inbounds i8, ptr %1, i64 2
  %30 = load i8, ptr %29, align 2
  tail call void @_Z13luaM_freegco_P9lua_StateP8GCObjectmhP8lua_Page(ptr noundef %0, ptr noundef %1, i64 noundef %28, i8 noundef zeroext %30, ptr noundef %2)
  ret void
}